target datalayout = "e-m:e-p270:32:32-p271:32:32-p272:64:64-i64:64-i128:128-f80:128-n8:16:32:64-S128"
target triple = "x86_64-pc-linux-gnu"

%struct.Qureg = type { i32, i32, i32, i64, i64, i32, i32, %struct.ComplexArray, %struct.ComplexArray, %struct.ComplexArray, ptr, ptr, ptr, ptr, ptr, ptr }
%struct.ComplexArray = type { ptr, ptr }
%struct.DiagonalOp = type { i32, i64, i32, i32, ptr, ptr, %struct.ComplexArray }

; Function Attrs: nounwind uwtable
define void @densmatr_applyDiagonalOp(ptr noundef byval(%struct.Qureg) align 8 %0, ptr noundef byval(%struct.DiagonalOp) align 8 %1) #0 {
  %3 = alloca ptr, align 8
  %4 = alloca ptr, align 8
  call void @llvm.lifetime.start.p0(i64 8, ptr %3) #6
  %5 = getelementptr inbounds nuw %struct.Qureg, ptr %0, i32 0, i32 8
  %6 = getelementptr inbounds nuw %struct.ComplexArray, ptr %5, i32 0, i32 0
  %7 = load ptr, ptr %6, align 8, !tbaa !10
  store ptr %7, ptr %3, align 8, !tbaa !17
  call void @llvm.lifetime.start.p0(i64 8, ptr %4) #6
  %8 = getelementptr inbounds nuw %struct.Qureg, ptr %0, i32 0, i32 8
  %9 = getelementptr inbounds nuw %struct.ComplexArray, ptr %8, i32 0, i32 1
  %10 = load ptr, ptr %9, align 8, !tbaa !18
  store ptr %10, ptr %4, align 8, !tbaa !17
  %11 = getelementptr inbounds nuw %struct.DiagonalOp, ptr %1, i32 0, i32 4
  %12 = load ptr, ptr %11, align 8, !tbaa !39
  %13 = getelementptr inbounds nuw %struct.Qureg, ptr %0, i32 0, i32 8
  %14 = getelementptr inbounds nuw %struct.ComplexArray, ptr %13, i32 0, i32 0
  store ptr %12, ptr %14, align 8, !tbaa !10
  %15 = getelementptr inbounds nuw %struct.DiagonalOp, ptr %1, i32 0, i32 5
  %16 = load ptr, ptr %15, align 8, !tbaa !41
  %17 = getelementptr inbounds nuw %struct.Qureg, ptr %0, i32 0, i32 8
  %18 = getelementptr inbounds nuw %struct.ComplexArray, ptr %17, i32 0, i32 1
  store ptr %16, ptr %18, align 8, !tbaa !18
  call void @densmatr_applyDiagonalOpLocal(ptr noundef byval(%struct.Qureg) align 8 %0, ptr noundef byval(%struct.DiagonalOp) align 8 %1)
  %19 = load ptr, ptr %3, align 8, !tbaa !17
  %20 = getelementptr inbounds nuw %struct.Qureg, ptr %0, i32 0, i32 8
  %21 = getelementptr inbounds nuw %struct.ComplexArray, ptr %20, i32 0, i32 0
  store ptr %19, ptr %21, align 8, !tbaa !10
  %22 = load ptr, ptr %4, align 8, !tbaa !17
  %23 = getelementptr inbounds nuw %struct.Qureg, ptr %0, i32 0, i32 8
  %24 = getelementptr inbounds nuw %struct.ComplexArray, ptr %23, i32 0, i32 1
  store ptr %22, ptr %24, align 8, !tbaa !18
  call void @llvm.lifetime.end.p0(i64 8, ptr %4) #6
  call void @llvm.lifetime.end.p0(i64 8, ptr %3) #6
  ret void
}